target datalayout = "e-m:e-p270:32:32-p271:32:32-p272:64:64-i64:64-i128:128-f80:128-n8:16:32:64-S128"
target triple = "x86_64-pc-linux-gnu"

%struct.Gia_ManEra_t_ = type { ptr, i32, i32, ptr, ptr, ptr, ptr, i32, ptr, ptr, i32, ptr }
%struct.Vec_Int_t_ = type { i32, i32, ptr }
%struct.Vec_Ptr_t_ = type { i32, i32, ptr }

; Function Attrs: nounwind uwtable
define internal void @Vec_PtrFree(ptr noundef %0) #0 {
  %2 = alloca ptr, align 8
  store ptr %0, ptr %2, align 8
  %3 = load ptr, ptr %2, align 8
  %4 = getelementptr inbounds %struct.Vec_Ptr_t_, ptr %3, i32 0, i32 2
  %5 = load ptr, ptr %4, align 8
  %6 = icmp ne ptr %5, null
  br i1 %6, label %7, label %13

7:                                                ; preds = %1
  %8 = load ptr, ptr %2, align 8
  %9 = getelementptr inbounds %struct.Vec_Ptr_t_, ptr %8, i32 0, i32 2
  %10 = load ptr, ptr %9, align 8
  call void @free(ptr noundef %10) #13
  %11 = load ptr, ptr %2, align 8
  %12 = getelementptr inbounds %struct.Vec_Ptr_t_, ptr %11, i32 0, i32 2
  store ptr null, ptr %12, align 8
  br label %14

13:                                               ; preds = %1
  br label %14

14:                                               ; preds = %13, %7
  %15 = load ptr, ptr %2, align 8
  %16 = icmp ne ptr %15, null
  br i1 %16, label %17, label %19

17:                                               ; preds = %14
  %18 = load ptr, ptr %2, align 8
  call void @free(ptr noundef %18) #13
  store ptr null, ptr %2, align 8
  br label %20

19:                                               ; preds = %14
  br label %20

20:                                               ; preds = %19, %17
  ret void
}

; Function Attrs: nounwind uwtable
define internal void @Vec_IntFree(ptr noundef %0) #0 {
  %2 = alloca ptr, align 8
  store ptr %0, ptr %2, align 8
  %3 = load ptr, ptr %2, align 8
  %4 = getelementptr inbounds %struct.Vec_Int_t_, ptr %3, i32 0, i32 2
  %5 = load ptr, ptr %4, align 8
  %6 = icmp ne ptr %5, null
  br i1 %6, label %7, label %13

7:                                                ; preds = %1
  %8 = load ptr, ptr %2, align 8
  %9 = getelementptr inbounds %struct.Vec_Int_t_, ptr %8, i32 0, i32 2
  %10 = load ptr, ptr %9, align 8
  call void @free(ptr noundef %10) #13
  %11 = load ptr, ptr %2, align 8
  %12 = getelementptr inbounds %struct.Vec_Int_t_, ptr %11, i32 0, i32 2
  store ptr null, ptr %12, align 8
  br label %14

13:                                               ; preds = %1
  br label %14

14:                                               ; preds = %13, %7
  %15 = load ptr, ptr %2, align 8
  %16 = icmp ne ptr %15, null
  br i1 %16, label %17, label %19

17:                                               ; preds = %14
  %18 = load ptr, ptr %2, align 8
  call void @free(ptr noundef %18) #13
  store ptr null, ptr %2, align 8
  br label %20

19:                                               ; preds = %14
  br label %20

20:                                               ; preds = %19, %17
  ret void
}

; Function Attrs: nounwind uwtable
define void @Gia_ManEraFree(ptr noundef %0) #0 {
  %2 = alloca ptr, align 8
  store ptr %0, ptr %2, align 8
  %3 = load ptr, ptr %2, align 8
  %4 = getelementptr inbounds %struct.Gia_ManEra_t_, ptr %3, i32 0, i32 4
  %5 = load ptr, ptr %4, align 8
  call void @Mem_FixedStop(ptr noundef %5, i32 noundef 0)
  %6 = load ptr, ptr %2, align 8
  %7 = getelementptr inbounds %struct.Gia_ManEra_t_, ptr %6, i32 0, i32 9
  %8 = load ptr, ptr %7, align 8
  call void @Vec_IntFree(ptr noundef %8)
  %9 = load ptr, ptr %2, align 8
  %10 = getelementptr inbounds %struct.Gia_ManEra_t_, ptr %9, i32 0, i32 5
  %11 = load ptr, ptr %10, align 8
  call void @Vec_PtrFree(ptr noundef %11)
  %12 = load ptr, ptr %2, align 8
  %13 = getelementptr inbounds %struct.Gia_ManEra_t_, ptr %12, i32 0, i32 8
  %14 = load ptr, ptr %13, align 8
  %15 = icmp ne ptr %14, null
  br i1 %15, label %16, label %20

16:                                               ; preds = %1
  %17 = load ptr, ptr %2, align 8
  %18 = getelementptr inbounds %struct.Gia_ManEra_t_, ptr %17, i32 0, i32 8
  %19 = load ptr, ptr %18, align 8
  call void @Vec_IntFree(ptr noundef %19)
  br label %20

20:                                               ; preds = %16, %1
  %21 = load ptr, ptr %2, align 8
  %22 = getelementptr inbounds %struct.Gia_ManEra_t_, ptr %21, i32 0, i32 3
  %23 = load ptr, ptr %22, align 8
  %24 = icmp ne ptr %23, null
  br i1 %24, label %25, label %31

25:                                               ; preds = %20
  %26 = load ptr, ptr %2, align 8
  %27 = getelementptr inbounds %struct.Gia_ManEra_t_, ptr %26, i32 0, i32 3
  %28 = load ptr, ptr %27, align 8
  call void @free(ptr noundef %28) #13
  %29 = load ptr, ptr %2, align 8
  %30 = getelementptr inbounds %struct.Gia_ManEra_t_, ptr %29, i32 0, i32 3
  store ptr null, ptr %30, align 8
  br label %32

31:                                               ; preds = %20
  br label %32

32:                                               ; preds = %31, %25
  %33 = load ptr, ptr %2, align 8
  %34 = getelementptr inbounds %struct.Gia_ManEra_t_, ptr %33, i32 0, i32 11
  %35 = load ptr, ptr %34, align 8
  %36 = icmp ne ptr %35, null
  br i1 %36, label %37, label %43

37:                                               ; preds = %32
  %38 = load ptr, ptr %2, align 8
  %39 = getelementptr inbounds %struct.Gia_ManEra_t_, ptr %38, i32 0, i32 11
  %40 = load ptr, ptr %39, align 8
  call void @free(ptr noundef %40) #13
  %41 = load ptr, ptr %2, align 8
  %42 = getelementptr inbounds %struct.Gia_ManEra_t_, ptr %41, i32 0, i32 11
  store ptr null, ptr %42, align 8
  br label %44

43:                                               ; preds = %32
  br label %44

44:                                               ; preds = %43, %37
  %45 = load ptr, ptr %2, align 8
  %46 = icmp ne ptr %45, null
  br i1 %46, label %47, label %49

47:                                               ; preds = %44
  %48 = load ptr, ptr %2, align 8
  call void @free(ptr noundef %48) #13
  store ptr null, ptr %2, align 8
  br label %50

49:                                               ; preds = %44
  br label %50

50:                                               ; preds = %49, %47
  ret void
}