; Function Attrs: nounwind uwtable
define void @Gia_ManEraFree(ptr noundef captures(none) %0) local_unnamed_addr #0 {
  %2 = getelementptr inbounds nuw i8, ptr %0, i64 24
  %3 = load ptr, ptr %2, align 8
  tail call void @Mem_FixedStop(ptr noundef %3, i32 noundef 0) #22
  %4 = getelementptr inbounds nuw i8, ptr %0, i64 64
  %5 = load ptr, ptr %4, align 8
  %6 = getelementptr inbounds nuw i8, ptr %5, i64 8
  %7 = load ptr, ptr %6, align 8
  %.not.i = icmp eq ptr %7, null
  br i1 %.not.i, label %Vec_IntFree.exit, label %8

8:                                                ; preds = %1
  tail call void @free(ptr noundef nonnull %7) #22
  br label %Vec_IntFree.exit

Vec_IntFree.exit:                                 ; preds = %1, %8
  tail call void @free(ptr noundef nonnull %5) #22
  %9 = getelementptr inbounds nuw i8, ptr %0, i64 32
  %10 = load ptr, ptr %9, align 8
  %11 = getelementptr inbounds nuw i8, ptr %10, i64 8
  %12 = load ptr, ptr %11, align 8
  %.not.i19 = icmp eq ptr %12, null
  br i1 %.not.i19, label %Vec_PtrFree.exit, label %13

13:                                               ; preds = %Vec_IntFree.exit
  tail call void @free(ptr noundef nonnull %12) #22
  br label %Vec_PtrFree.exit

Vec_PtrFree.exit:                                 ; preds = %Vec_IntFree.exit, %13
  tail call void @free(ptr noundef nonnull %10) #22
  %14 = getelementptr inbounds nuw i8, ptr %0, i64 56
  %15 = load ptr, ptr %14, align 8
  %.not = icmp eq ptr %15, null
  br i1 %.not, label %20, label %16

16:                                               ; preds = %Vec_PtrFree.exit
  %17 = getelementptr inbounds nuw i8, ptr %15, i64 8
  %18 = load ptr, ptr %17, align 8
  %.not.i20 = icmp eq ptr %18, null
  br i1 %.not.i20, label %Vec_IntFree.exit21, label %19

19:                                               ; preds = %16
  tail call void @free(ptr noundef nonnull %18) #22
  br label %Vec_IntFree.exit21

Vec_IntFree.exit21:                               ; preds = %16, %19
  tail call void @free(ptr noundef nonnull %15) #22
  br label %20

20:                                               ; preds = %Vec_IntFree.exit21, %Vec_PtrFree.exit
  %21 = getelementptr inbounds nuw i8, ptr %0, i64 16
  %22 = load ptr, ptr %21, align 8
  %.not16 = icmp eq ptr %22, null
  br i1 %.not16, label %24, label %23

23:                                               ; preds = %20
  tail call void @free(ptr noundef nonnull %22) #22
  store ptr null, ptr %21, align 8
  br label %24

24:                                               ; preds = %20, %23
  %25 = getelementptr inbounds nuw i8, ptr %0, i64 80
  %26 = load ptr, ptr %25, align 8
  %.not17 = icmp eq ptr %26, null
  br i1 %.not17, label %28, label %27

27:                                               ; preds = %24
  tail call void @free(ptr noundef nonnull %26) #22
  br label %28

28:                                               ; preds = %24, %27
  tail call void @free(ptr noundef nonnull %0) #22
  ret void
}